; Function Attrs: mustprogress nofree norecurse nosync nounwind willreturn memory(argmem: write) uwtable
define void @_ZN5ZXing10DataMatrix6WriterC2Ev(ptr noundef nonnull writeonly align 4 captures(none) dereferenceable(25) initializes((0, 25)) %0) unnamed_addr #0 align 2 {
  store i32 0, ptr %0, align 4, !tbaa !3
  %2 = getelementptr inbounds nuw i8, ptr %0, i64 4
  store i32 1, ptr %2, align 4, !tbaa !10
  %3 = getelementptr inbounds nuw i8, ptr %0, i64 8
  %4 = getelementptr inbounds nuw i8, ptr %0, i64 24
  tail call void @llvm.memset.p0.i64(ptr noundef nonnull align 4 dereferenceable(16) %3, i8 -1, i64 16, i1 false)
  store i8 0, ptr %4, align 4, !tbaa !11
  ret void
}